target datalayout = "e-m:e-p270:32:32-p271:32:32-p272:64:64-i64:64-i128:128-f80:128-n8:16:32:64-S128"
target triple = "x86_64-pc-linux-gnu"

%class.QSettings = type { %class.QObject }
%class.QObject = type { ptr, %class.QScopedPointer }
%class.QScopedPointer = type { ptr }
%class.QVariant = type { %"struct.QVariant::Private" }
%"struct.QVariant::Private" = type <{ %"union.QVariant::Private::Data", i32, [4 x i8] }>
%"union.QVariant::Private::Data" = type { i64 }
%class.QString = type { ptr }

@.str.232 = private unnamed_addr constant [18 x i8] c"loadedMeshCounter\00", align 1
@.str.233 = private unnamed_addr constant [24 x i8] c"dontRemindMeToSendEmail\00", align 1
@.str.234 = private unnamed_addr constant [20 x i8] c"congratsMeshCounter\00", align 1

; Function Attrs: mustprogress nounwind uwtable
define linkonce_odr void @_ZN8QVariant7PrivateC2Ev(ptr noundef nonnull align 8 dereferenceable(12) %0) unnamed_addr #4 comdat align 2 {
  %2 = alloca ptr, align 8
  store ptr %0, ptr %2, align 8
  %3 = load ptr, ptr %2, align 8
  %4 = getelementptr inbounds %"struct.QVariant::Private", ptr %3, i32 0, i32 1
  %5 = load i32, ptr %4, align 8
  %6 = and i32 %5, -1073741824
  %7 = or i32 %6, 0
  store i32 %7, ptr %4, align 8
  %8 = getelementptr inbounds %"struct.QVariant::Private", ptr %3, i32 0, i32 1
  %9 = load i32, ptr %8, align 8
  %10 = and i32 %9, -1073741825
  %11 = or i32 %10, 0
  store i32 %11, ptr %8, align 8
  %12 = getelementptr inbounds %"struct.QVariant::Private", ptr %3, i32 0, i32 1
  %13 = load i32, ptr %12, align 8
  %14 = and i32 %13, 2147483647
  %15 = or i32 %14, -2147483648
  store i32 %15, ptr %12, align 8
  %16 = getelementptr inbounds %"struct.QVariant::Private", ptr %3, i32 0, i32 0
  store ptr null, ptr %16, align 8
  ret void
}

; Function Attrs: mustprogress nounwind uwtable
define linkonce_odr void @_ZN8QVariantC2Ev(ptr noundef nonnull align 8 dereferenceable(16) %0) unnamed_addr #4 comdat align 2 {
  %2 = alloca ptr, align 8
  store ptr %0, ptr %2, align 8
  %3 = load ptr, ptr %2, align 8
  %4 = getelementptr inbounds %class.QVariant, ptr %3, i32 0, i32 0
  call void @_ZN8QVariant7PrivateC2Ev(ptr noundef nonnull align 8 dereferenceable(12) %4) #3
  ret void
}

; Function Attrs: mustprogress uwtable
define linkonce_odr void @_ZN7QStringC2EPKc(ptr noundef nonnull align 8 dereferenceable(8) %0, ptr noundef %1) unnamed_addr #5 comdat align 2 {
  %3 = alloca ptr, align 8
  %4 = alloca ptr, align 8
  store ptr %0, ptr %3, align 8
  store ptr %1, ptr %4, align 8
  %5 = load ptr, ptr %3, align 8
  %6 = getelementptr inbounds %class.QString, ptr %5, i32 0, i32 0
  %7 = load ptr, ptr %4, align 8
  %8 = load ptr, ptr %4, align 8
  %9 = icmp ne ptr %8, null
  br i1 %9, label %10, label %14

10:                                               ; preds = %2
  %11 = load ptr, ptr %4, align 8
  %12 = call i64 @strlen(ptr noundef %11) #16
  %13 = trunc i64 %12 to i32
  br label %15

14:                                               ; preds = %2
  br label %15

15:                                               ; preds = %14, %10
  %16 = phi i32 [ %13, %10 ], [ -1, %14 ]
  %17 = call noundef ptr @_ZN7QString16fromAscii_helperEPKci(ptr noundef %7, i32 noundef %16)
  store ptr %17, ptr %6, align 8
  ret void
}

; Function Attrs: mustprogress uwtable
define void @_ZN10MainWindow11sendUsAMailEv(ptr noundef nonnull align 8 dereferenceable(1376) %0) #5 align 2 personality ptr @__gxx_personality_v0 {
  %2 = alloca ptr, align 8
  %3 = alloca %class.QSettings, align 8
  %4 = alloca %class.QString, align 8
  %5 = alloca ptr, align 8
  %6 = alloca i32, align 4
  %7 = alloca i8, align 1
  %8 = alloca %class.QVariant, align 8
  %9 = alloca %class.QVariant, align 8
  %10 = alloca i32, align 4
  %11 = alloca i32, align 4
  %12 = alloca %class.QVariant, align 8
  %13 = alloca %class.QString, align 8
  %14 = alloca %class.QVariant, align 8
  %15 = alloca i32, align 4
  %16 = alloca %class.QVariant, align 8
  %17 = alloca %class.QString, align 8
  %18 = alloca %class.QVariant, align 8
  %19 = alloca ptr, align 8
  store ptr %0, ptr %2, align 8
  %20 = load ptr, ptr %2, align 8
  call void @_ZN9QSettingsC1EP7QObject(ptr noundef nonnull align 8 dereferenceable(16) %3, ptr noundef null)
  invoke void @_ZN7QStringC2EPKc(ptr noundef nonnull align 8 dereferenceable(8) %4, ptr noundef @.str.233)
          to label %21 unwind label %29

21:                                               ; preds = %1
  store i8 0, ptr %7, align 1
  %22 = invoke noundef zeroext i1 @_ZNK9QSettings8containsERK7QString(ptr noundef nonnull align 8 dereferenceable(16) %3, ptr noundef nonnull align 8 dereferenceable(8) %4)
          to label %23 unwind label %33

23:                                               ; preds = %21
  br i1 %22, label %24, label %46

24:                                               ; preds = %23
  call void @_ZN8QVariantC2Ev(ptr noundef nonnull align 8 dereferenceable(16) %9) #3
  invoke void @_ZNK9QSettings5valueERK7QStringRK8QVariant(ptr dead_on_unwind writable sret(%class.QVariant) align 8 %8, ptr noundef nonnull align 8 dereferenceable(16) %3, ptr noundef nonnull align 8 dereferenceable(8) %4, ptr noundef nonnull align 8 dereferenceable(16) %9)
          to label %25 unwind label %37

25:                                               ; preds = %24
  %26 = invoke noundef zeroext i1 @_ZNK8QVariant6toBoolEv(ptr noundef nonnull align 8 dereferenceable(16) %8)
          to label %27 unwind label %41

27:                                               ; preds = %25
  %28 = zext i1 %26 to i8
  store i8 %28, ptr %7, align 1
  call void @_ZN8QVariantD1Ev(ptr noundef nonnull align 8 dereferenceable(16) %8) #3
  call void @_ZN8QVariantD1Ev(ptr noundef nonnull align 8 dereferenceable(16) %9) #3
  br label %46

29:                                               ; preds = %1
  %30 = landingpad { ptr, i32 }
          cleanup
  %31 = extractvalue { ptr, i32 } %30, 0
  store ptr %31, ptr %5, align 8
  %32 = extractvalue { ptr, i32 } %30, 1
  store i32 %32, ptr %6, align 4
  br label %101

33:                                               ; preds = %66, %63, %54, %50, %21
  %34 = landingpad { ptr, i32 }
          cleanup
  %35 = extractvalue { ptr, i32 } %34, 0
  store ptr %35, ptr %5, align 8
  %36 = extractvalue { ptr, i32 } %34, 1
  store i32 %36, ptr %6, align 4
  br label %100

37:                                               ; preds = %24
  %38 = landingpad { ptr, i32 }
          cleanup
  %39 = extractvalue { ptr, i32 } %38, 0
  store ptr %39, ptr %5, align 8
  %40 = extractvalue { ptr, i32 } %38, 1
  store i32 %40, ptr %6, align 4
  br label %45

41:                                               ; preds = %25
  %42 = landingpad { ptr, i32 }
          cleanup
  %43 = extractvalue { ptr, i32 } %42, 0
  store ptr %43, ptr %5, align 8
  %44 = extractvalue { ptr, i32 } %42, 1
  store i32 %44, ptr %6, align 4
  call void @_ZN8QVariantD1Ev(ptr noundef nonnull align 8 dereferenceable(16) %8) #3
  br label %45

45:                                               ; preds = %41, %37
  call void @_ZN8QVariantD1Ev(ptr noundef nonnull align 8 dereferenceable(16) %9) #3
  br label %100

46:                                               ; preds = %27, %23
  %47 = load i8, ptr %7, align 1
  %48 = trunc i8 %47 to i1
  br i1 %48, label %49, label %50

49:                                               ; preds = %46
  store i32 1, ptr %10, align 4
  br label %97

50:                                               ; preds = %46
  invoke void @_ZN7QStringC2EPKc(ptr noundef nonnull align 8 dereferenceable(8) %13, ptr noundef @.str.232)
          to label %51 unwind label %33

51:                                               ; preds = %50
  call void @_ZN8QVariantC2Ev(ptr noundef nonnull align 8 dereferenceable(16) %14) #3
  invoke void @_ZNK9QSettings5valueERK7QStringRK8QVariant(ptr dead_on_unwind writable sret(%class.QVariant) align 8 %12, ptr noundef nonnull align 8 dereferenceable(16) %3, ptr noundef nonnull align 8 dereferenceable(8) %13, ptr noundef nonnull align 8 dereferenceable(16) %14)
          to label %52 unwind label %69

52:                                               ; preds = %51
  %53 = invoke noundef i32 @_ZNK8QVariant5toIntEPb(ptr noundef nonnull align 8 dereferenceable(16) %12, ptr noundef null)
          to label %54 unwind label %73

54:                                               ; preds = %52
  call void @_ZN8QVariantD1Ev(ptr noundef nonnull align 8 dereferenceable(16) %12) #3
  call void @_ZN8QVariantD1Ev(ptr noundef nonnull align 8 dereferenceable(16) %14) #3
  call void @_ZN7QStringD2Ev(ptr noundef nonnull align 8 dereferenceable(8) %13) #3
  store i32 %53, ptr %11, align 4
  invoke void @_ZN7QStringC2EPKc(ptr noundef nonnull align 8 dereferenceable(8) %17, ptr noundef @.str.234)
          to label %55 unwind label %33

55:                                               ; preds = %54
  invoke void @_ZN8QVariantC1Ei(ptr noundef nonnull align 8 dereferenceable(16) %18, i32 noundef 50)
          to label %56 unwind label %78

56:                                               ; preds = %55
  invoke void @_ZNK9QSettings5valueERK7QStringRK8QVariant(ptr dead_on_unwind writable sret(%class.QVariant) align 8 %16, ptr noundef nonnull align 8 dereferenceable(16) %3, ptr noundef nonnull align 8 dereferenceable(8) %17, ptr noundef nonnull align 8 dereferenceable(16) %18)
          to label %57 unwind label %82

57:                                               ; preds = %56
  %58 = invoke noundef i32 @_ZNK8QVariant5toIntEPb(ptr noundef nonnull align 8 dereferenceable(16) %16, ptr noundef null)
          to label %59 unwind label %86

59:                                               ; preds = %57
  call void @_ZN8QVariantD1Ev(ptr noundef nonnull align 8 dereferenceable(16) %16) #3
  call void @_ZN8QVariantD1Ev(ptr noundef nonnull align 8 dereferenceable(16) %18) #3
  call void @_ZN7QStringD2Ev(ptr noundef nonnull align 8 dereferenceable(8) %17) #3
  store i32 %58, ptr %15, align 4
  %60 = load i32, ptr %11, align 4
  %61 = load i32, ptr %15, align 4
  %62 = icmp sgt i32 %60, %61
  br i1 %62, label %63, label %96

63:                                               ; preds = %59
  %64 = invoke noalias noundef nonnull ptr @_Znwm(i64 noundef 56) #19
          to label %65 unwind label %33

65:                                               ; preds = %63
  invoke void @_ZN14CongratsDialogC1EP7QWidget(ptr noundef nonnull align 8 dereferenceable(56) %64, ptr noundef %20)
          to label %66 unwind label %92

66:                                               ; preds = %65
  store ptr %64, ptr %19, align 8
  %67 = load ptr, ptr %19, align 8
  invoke void @_ZN7QWidget4showEv(ptr noundef nonnull align 8 dereferenceable(48) %67)
          to label %68 unwind label %33

68:                                               ; preds = %66
  br label %96

69:                                               ; preds = %51
  %70 = landingpad { ptr, i32 }
          cleanup
  %71 = extractvalue { ptr, i32 } %70, 0
  store ptr %71, ptr %5, align 8
  %72 = extractvalue { ptr, i32 } %70, 1
  store i32 %72, ptr %6, align 4
  br label %77

73:                                               ; preds = %52
  %74 = landingpad { ptr, i32 }
          cleanup
  %75 = extractvalue { ptr, i32 } %74, 0
  store ptr %75, ptr %5, align 8
  %76 = extractvalue { ptr, i32 } %74, 1
  store i32 %76, ptr %6, align 4
  call void @_ZN8QVariantD1Ev(ptr noundef nonnull align 8 dereferenceable(16) %12) #3
  br label %77

77:                                               ; preds = %73, %69
  call void @_ZN8QVariantD1Ev(ptr noundef nonnull align 8 dereferenceable(16) %14) #3
  call void @_ZN7QStringD2Ev(ptr noundef nonnull align 8 dereferenceable(8) %13) #3
  br label %100

78:                                               ; preds = %55
  %79 = landingpad { ptr, i32 }
          cleanup
  %80 = extractvalue { ptr, i32 } %79, 0
  store ptr %80, ptr %5, align 8
  %81 = extractvalue { ptr, i32 } %79, 1
  store i32 %81, ptr %6, align 4
  br label %91

82:                                               ; preds = %56
  %83 = landingpad { ptr, i32 }
          cleanup
  %84 = extractvalue { ptr, i32 } %83, 0
  store ptr %84, ptr %5, align 8
  %85 = extractvalue { ptr, i32 } %83, 1
  store i32 %85, ptr %6, align 4
  br label %90

86:                                               ; preds = %57
  %87 = landingpad { ptr, i32 }
          cleanup
  %88 = extractvalue { ptr, i32 } %87, 0
  store ptr %88, ptr %5, align 8
  %89 = extractvalue { ptr, i32 } %87, 1
  store i32 %89, ptr %6, align 4
  call void @_ZN8QVariantD1Ev(ptr noundef nonnull align 8 dereferenceable(16) %16) #3
  br label %90

90:                                               ; preds = %86, %82
  call void @_ZN8QVariantD1Ev(ptr noundef nonnull align 8 dereferenceable(16) %18) #3
  br label %91

91:                                               ; preds = %90, %78
  call void @_ZN7QStringD2Ev(ptr noundef nonnull align 8 dereferenceable(8) %17) #3
  br label %100

92:                                               ; preds = %65
  %93 = landingpad { ptr, i32 }
          cleanup
  %94 = extractvalue { ptr, i32 } %93, 0
  store ptr %94, ptr %5, align 8
  %95 = extractvalue { ptr, i32 } %93, 1
  store i32 %95, ptr %6, align 4
  call void @_ZdlPv(ptr noundef %64) #20
  br label %100

96:                                               ; preds = %68, %59
  store i32 0, ptr %10, align 4
  br label %97

97:                                               ; preds = %96, %49
  call void @_ZN7QStringD2Ev(ptr noundef nonnull align 8 dereferenceable(8) %4) #3
  call void @_ZN9QSettingsD1Ev(ptr noundef nonnull align 8 dereferenceable(16) %3) #3
  %98 = load i32, ptr %10, align 4
  switch i32 %98, label %107 [
    i32 0, label %99
    i32 1, label %99
  ]

99:                                               ; preds = %97, %97
  ret void

100:                                              ; preds = %92, %91, %77, %45, %33
  call void @_ZN7QStringD2Ev(ptr noundef nonnull align 8 dereferenceable(8) %4) #3
  br label %101

101:                                              ; preds = %100, %29
  call void @_ZN9QSettingsD1Ev(ptr noundef nonnull align 8 dereferenceable(16) %3) #3
  br label %102

102:                                              ; preds = %101
  %103 = load ptr, ptr %5, align 8
  %104 = load i32, ptr %6, align 4
  %105 = insertvalue { ptr, i32 } poison, ptr %103, 0
  %106 = insertvalue { ptr, i32 } %105, i32 %104, 1
  resume { ptr, i32 } %106

107:                                              ; preds = %97
  unreachable
}