; Function Attrs: mustprogress uwtable
define void @_ZN10MainWindow11sendUsAMailEv(ptr noundef nonnull align 8 dereferenceable(1376) %0) local_unnamed_addr #9 align 2 personality ptr @__gxx_personality_v0 {
  %2 = alloca %class.QSettings, align 8
  %3 = alloca %class.QString, align 8
  %4 = alloca %class.QVariant, align 8
  %5 = alloca %class.QVariant, align 8
  %6 = alloca %class.QVariant, align 8
  %7 = alloca %class.QString, align 8
  %8 = alloca %class.QVariant, align 8
  %9 = alloca %class.QVariant, align 8
  %10 = alloca %class.QString, align 8
  %11 = alloca %class.QVariant, align 8
  call void @_ZN9QSettingsC1EP7QObject(ptr noundef nonnull align 8 dereferenceable(16) %2, ptr noundef null)
  %12 = invoke noundef ptr @_ZN7QString16fromAscii_helperEPKci(ptr noundef nonnull @.str.233, i32 noundef 23)
          to label %13 unwind label %21

13:                                               ; preds = %1
  store ptr %12, ptr %3, align 8
  %14 = invoke noundef zeroext i1 @_ZNK9QSettings8containsERK7QString(ptr noundef nonnull align 8 dereferenceable(16) %2, ptr noundef nonnull align 8 dereferenceable(8) %3)
          to label %15 unwind label %23

15:                                               ; preds = %13
  br i1 %14, label %16, label %.critedge

16:                                               ; preds = %15
  %17 = getelementptr inbounds i8, ptr %5, i64 8
  store i32 -2147483648, ptr %17, align 8
  store ptr null, ptr %5, align 8
  invoke void @_ZNK9QSettings5valueERK7QStringRK8QVariant(ptr dead_on_unwind nonnull writable sret(%class.QVariant) align 8 %4, ptr noundef nonnull align 8 dereferenceable(16) %2, ptr noundef nonnull align 8 dereferenceable(8) %3, ptr noundef nonnull align 8 dereferenceable(16) %5)
          to label %18 unwind label %25

18:                                               ; preds = %16
  %19 = invoke noundef zeroext i1 @_ZNK8QVariant6toBoolEv(ptr noundef nonnull align 8 dereferenceable(16) %4)
          to label %20 unwind label %27

20:                                               ; preds = %18
  call void @_ZN8QVariantD1Ev(ptr noundef nonnull align 8 dereferenceable(16) %4) #21
  call void @_ZN8QVariantD1Ev(ptr noundef nonnull align 8 dereferenceable(16) %5) #21
  br i1 %19, label %70, label %.critedge

21:                                               ; preds = %1
  %22 = landingpad { ptr, i32 }
          cleanup
  br label %76

23:                                               ; preds = %_ZN7QStringD2Ev.exit, %.critedge, %54, %51, %13
  %24 = landingpad { ptr, i32 }
          cleanup
  br label %75

25:                                               ; preds = %16
  %26 = landingpad { ptr, i32 }
          cleanup
  br label %29

27:                                               ; preds = %18
  %28 = landingpad { ptr, i32 }
          cleanup
  call void @_ZN8QVariantD1Ev(ptr noundef nonnull align 8 dereferenceable(16) %4) #21
  br label %29

29:                                               ; preds = %27, %25
  %.pn = phi { ptr, i32 } [ %28, %27 ], [ %26, %25 ]
  call void @_ZN8QVariantD1Ev(ptr noundef nonnull align 8 dereferenceable(16) %5) #21
  br label %75

.critedge:                                        ; preds = %15, %20
  %30 = invoke noundef ptr @_ZN7QString16fromAscii_helperEPKci(ptr noundef nonnull @.str.232, i32 noundef 17)
          to label %31 unwind label %23

31:                                               ; preds = %.critedge
  store ptr %30, ptr %7, align 8
  %32 = getelementptr inbounds i8, ptr %8, i64 8
  store i32 -2147483648, ptr %32, align 8
  store ptr null, ptr %8, align 8
  invoke void @_ZNK9QSettings5valueERK7QStringRK8QVariant(ptr dead_on_unwind nonnull writable sret(%class.QVariant) align 8 %6, ptr noundef nonnull align 8 dereferenceable(16) %2, ptr noundef nonnull align 8 dereferenceable(8) %7, ptr noundef nonnull align 8 dereferenceable(16) %8)
          to label %33 unwind label %55

33:                                               ; preds = %31
  %34 = invoke noundef i32 @_ZNK8QVariant5toIntEPb(ptr noundef nonnull align 8 dereferenceable(16) %6, ptr noundef null)
          to label %35 unwind label %57

35:                                               ; preds = %33
  call void @_ZN8QVariantD1Ev(ptr noundef nonnull align 8 dereferenceable(16) %6) #21
  call void @_ZN8QVariantD1Ev(ptr noundef nonnull align 8 dereferenceable(16) %8) #21
  %36 = load ptr, ptr %7, align 8
  %37 = load atomic i32, ptr %36 monotonic, align 4
  switch i32 %37, label %_ZN9QtPrivate8RefCount5derefEv.exit.i [
    i32 0, label %_ZN9QtPrivate8RefCount5derefEv.exit.thread2.i
    i32 -1, label %_ZN7QStringD2Ev.exit
  ]

_ZN9QtPrivate8RefCount5derefEv.exit.i:            ; preds = %35
  %38 = atomicrmw sub ptr %36, i32 1 seq_cst, align 4
  %.not.i = icmp eq i32 %38, 1
  br i1 %.not.i, label %_ZN9QtPrivate8RefCount5derefEv.exit._ZN9QtPrivate8RefCount5derefEv.exit.thread2_crit_edge.i, label %_ZN7QStringD2Ev.exit

_ZN9QtPrivate8RefCount5derefEv.exit._ZN9QtPrivate8RefCount5derefEv.exit.thread2_crit_edge.i: ; preds = %_ZN9QtPrivate8RefCount5derefEv.exit.i
  %.pre.i = load ptr, ptr %7, align 8
  br label %_ZN9QtPrivate8RefCount5derefEv.exit.thread2.i

_ZN9QtPrivate8RefCount5derefEv.exit.thread2.i:    ; preds = %_ZN9QtPrivate8RefCount5derefEv.exit._ZN9QtPrivate8RefCount5derefEv.exit.thread2_crit_edge.i, %35
  %39 = phi ptr [ %.pre.i, %_ZN9QtPrivate8RefCount5derefEv.exit._ZN9QtPrivate8RefCount5derefEv.exit.thread2_crit_edge.i ], [ %36, %35 ]
  call void @_ZN10QArrayData10deallocateEPS_mm(ptr noundef %39, i64 noundef 2, i64 noundef 8) #21
  br label %_ZN7QStringD2Ev.exit

_ZN7QStringD2Ev.exit:                             ; preds = %35, %_ZN9QtPrivate8RefCount5derefEv.exit.i, %_ZN9QtPrivate8RefCount5derefEv.exit.thread2.i
  %40 = invoke noundef ptr @_ZN7QString16fromAscii_helperEPKci(ptr noundef nonnull @.str.234, i32 noundef 19)
          to label %41 unwind label %23

41:                                               ; preds = %_ZN7QStringD2Ev.exit
  store ptr %40, ptr %10, align 8
  invoke void @_ZN8QVariantC1Ei(ptr noundef nonnull align 8 dereferenceable(16) %11, i32 noundef 50)
          to label %42 unwind label %60

42:                                               ; preds = %41
  invoke void @_ZNK9QSettings5valueERK7QStringRK8QVariant(ptr dead_on_unwind nonnull writable sret(%class.QVariant) align 8 %9, ptr noundef nonnull align 8 dereferenceable(16) %2, ptr noundef nonnull align 8 dereferenceable(8) %10, ptr noundef nonnull align 8 dereferenceable(16) %11)
          to label %43 unwind label %62

43:                                               ; preds = %42
  %44 = invoke noundef i32 @_ZNK8QVariant5toIntEPb(ptr noundef nonnull align 8 dereferenceable(16) %9, ptr noundef null)
          to label %45 unwind label %64

45:                                               ; preds = %43
  call void @_ZN8QVariantD1Ev(ptr noundef nonnull align 8 dereferenceable(16) %9) #21
  call void @_ZN8QVariantD1Ev(ptr noundef nonnull align 8 dereferenceable(16) %11) #21
  %46 = load ptr, ptr %10, align 8
  %47 = load atomic i32, ptr %46 monotonic, align 4
  switch i32 %47, label %_ZN9QtPrivate8RefCount5derefEv.exit.i25 [
    i32 0, label %_ZN9QtPrivate8RefCount5derefEv.exit.thread2.i24
    i32 -1, label %_ZN7QStringD2Ev.exit29
  ]

_ZN9QtPrivate8RefCount5derefEv.exit.i25:          ; preds = %45
  %48 = atomicrmw sub ptr %46, i32 1 seq_cst, align 4
  %.not.i26 = icmp eq i32 %48, 1
  br i1 %.not.i26, label %_ZN9QtPrivate8RefCount5derefEv.exit._ZN9QtPrivate8RefCount5derefEv.exit.thread2_crit_edge.i27, label %_ZN7QStringD2Ev.exit29

_ZN9QtPrivate8RefCount5derefEv.exit._ZN9QtPrivate8RefCount5derefEv.exit.thread2_crit_edge.i27: ; preds = %_ZN9QtPrivate8RefCount5derefEv.exit.i25
  %.pre.i28 = load ptr, ptr %10, align 8
  br label %_ZN9QtPrivate8RefCount5derefEv.exit.thread2.i24

_ZN9QtPrivate8RefCount5derefEv.exit.thread2.i24:  ; preds = %_ZN9QtPrivate8RefCount5derefEv.exit._ZN9QtPrivate8RefCount5derefEv.exit.thread2_crit_edge.i27, %45
  %49 = phi ptr [ %.pre.i28, %_ZN9QtPrivate8RefCount5derefEv.exit._ZN9QtPrivate8RefCount5derefEv.exit.thread2_crit_edge.i27 ], [ %46, %45 ]
  call void @_ZN10QArrayData10deallocateEPS_mm(ptr noundef %49, i64 noundef 2, i64 noundef 8) #21
  br label %_ZN7QStringD2Ev.exit29

_ZN7QStringD2Ev.exit29:                           ; preds = %45, %_ZN9QtPrivate8RefCount5derefEv.exit.i25, %_ZN9QtPrivate8RefCount5derefEv.exit.thread2.i24
  %50 = icmp sgt i32 %34, %44
  br i1 %50, label %51, label %70

51:                                               ; preds = %_ZN7QStringD2Ev.exit29
  %52 = invoke noalias noundef nonnull dereferenceable(56) ptr @_Znwm(i64 noundef 56) #24
          to label %53 unwind label %23

53:                                               ; preds = %51
  invoke void @_ZN14CongratsDialogC1EP7QWidget(ptr noundef nonnull align 8 dereferenceable(56) %52, ptr noundef nonnull %0)
          to label %54 unwind label %68

54:                                               ; preds = %53
  invoke void @_ZN7QWidget4showEv(ptr noundef nonnull align 8 dereferenceable(48) %52)
          to label %70 unwind label %23

55:                                               ; preds = %31
  %56 = landingpad { ptr, i32 }
          cleanup
  br label %59

57:                                               ; preds = %33
  %58 = landingpad { ptr, i32 }
          cleanup
  call void @_ZN8QVariantD1Ev(ptr noundef nonnull align 8 dereferenceable(16) %6) #21
  br label %59

59:                                               ; preds = %57, %55
  %.pn14 = phi { ptr, i32 } [ %58, %57 ], [ %56, %55 ]
  call void @_ZN8QVariantD1Ev(ptr noundef nonnull align 8 dereferenceable(16) %8) #21
  call void @_ZN7QStringD2Ev(ptr noundef nonnull align 8 dereferenceable(8) %7) #21
  br label %75

60:                                               ; preds = %41
  %61 = landingpad { ptr, i32 }
          cleanup
  br label %67

62:                                               ; preds = %42
  %63 = landingpad { ptr, i32 }
          cleanup
  br label %66

64:                                               ; preds = %43
  %65 = landingpad { ptr, i32 }
          cleanup
  call void @_ZN8QVariantD1Ev(ptr noundef nonnull align 8 dereferenceable(16) %9) #21
  br label %66

66:                                               ; preds = %64, %62
  %.pn16 = phi { ptr, i32 } [ %65, %64 ], [ %63, %62 ]
  call void @_ZN8QVariantD1Ev(ptr noundef nonnull align 8 dereferenceable(16) %11) #21
  br label %67

67:                                               ; preds = %66, %60
  %.pn16.pn = phi { ptr, i32 } [ %.pn16, %66 ], [ %61, %60 ]
  call void @_ZN7QStringD2Ev(ptr noundef nonnull align 8 dereferenceable(8) %10) #21
  br label %75

68:                                               ; preds = %53
  %69 = landingpad { ptr, i32 }
          cleanup
  call void @_ZdlPv(ptr noundef nonnull %52) #20
  br label %75

70:                                               ; preds = %_ZN7QStringD2Ev.exit29, %54, %20
  %71 = load ptr, ptr %3, align 8
  %72 = load atomic i32, ptr %71 monotonic, align 4
  switch i32 %72, label %_ZN9QtPrivate8RefCount5derefEv.exit.i31 [
    i32 0, label %_ZN9QtPrivate8RefCount5derefEv.exit.thread2.i30
    i32 -1, label %_ZN7QStringD2Ev.exit35
  ]

_ZN9QtPrivate8RefCount5derefEv.exit.i31:          ; preds = %70
  %73 = atomicrmw sub ptr %71, i32 1 seq_cst, align 4
  %.not.i32 = icmp eq i32 %73, 1
  br i1 %.not.i32, label %_ZN9QtPrivate8RefCount5derefEv.exit._ZN9QtPrivate8RefCount5derefEv.exit.thread2_crit_edge.i33, label %_ZN7QStringD2Ev.exit35

_ZN9QtPrivate8RefCount5derefEv.exit._ZN9QtPrivate8RefCount5derefEv.exit.thread2_crit_edge.i33: ; preds = %_ZN9QtPrivate8RefCount5derefEv.exit.i31
  %.pre.i34 = load ptr, ptr %3, align 8
  br label %_ZN9QtPrivate8RefCount5derefEv.exit.thread2.i30

_ZN9QtPrivate8RefCount5derefEv.exit.thread2.i30:  ; preds = %_ZN9QtPrivate8RefCount5derefEv.exit._ZN9QtPrivate8RefCount5derefEv.exit.thread2_crit_edge.i33, %70
  %74 = phi ptr [ %.pre.i34, %_ZN9QtPrivate8RefCount5derefEv.exit._ZN9QtPrivate8RefCount5derefEv.exit.thread2_crit_edge.i33 ], [ %71, %70 ]
  call void @_ZN10QArrayData10deallocateEPS_mm(ptr noundef %74, i64 noundef 2, i64 noundef 8) #21
  br label %_ZN7QStringD2Ev.exit35

_ZN7QStringD2Ev.exit35:                           ; preds = %70, %_ZN9QtPrivate8RefCount5derefEv.exit.i31, %_ZN9QtPrivate8RefCount5derefEv.exit.thread2.i30
  call void @_ZN9QSettingsD1Ev(ptr noundef nonnull align 8 dereferenceable(16) %2) #21
  ret void

75:                                               ; preds = %68, %67, %59, %29, %23
  %.pn19 = phi { ptr, i32 } [ %24, %23 ], [ %69, %68 ], [ %.pn16.pn, %67 ], [ %.pn14, %59 ], [ %.pn, %29 ]
  call void @_ZN7QStringD2Ev(ptr noundef nonnull align 8 dereferenceable(8) %3) #21
  br label %76

76:                                               ; preds = %75, %21
  %.pn19.pn = phi { ptr, i32 } [ %.pn19, %75 ], [ %22, %21 ]
  call void @_ZN9QSettingsD1Ev(ptr noundef nonnull align 8 dereferenceable(16) %2) #21
  resume { ptr, i32 } %.pn19.pn
}